target datalayout = "e-m:e-p270:32:32-p271:32:32-p272:64:64-i64:64-i128:128-f80:128-n8:16:32:64-S128"
target triple = "x86_64-pc-linux-gnu"

@.str = private unnamed_addr constant [9 x i8] c"bulkread\00", align 1
@.str.1 = private unnamed_addr constant [10 x i8] c"bulkwrite\00", align 1
@.str.2 = private unnamed_addr constant [5 x i8] c"init\00", align 1
@.str.3 = private unnamed_addr constant [7 x i8] c"normal\00", align 1
@.str.4 = private unnamed_addr constant [7 x i8] c"vacuum\00", align 1
@.str.5 = private unnamed_addr constant [33 x i8] c"unrecognized IOContext value: %d\00", align 1
@.str.6 = private unnamed_addr constant [12 x i8] c"pgstat_io.c\00", align 1
@__func__.pgstat_get_io_context_name = private unnamed_addr constant [27 x i8] c"pgstat_get_io_context_name\00", align 1

; Function Attrs: nounwind uwtable
define dso_local ptr @pgstat_get_io_context_name(i32 noundef %0) #0 {
  %2 = alloca ptr, align 8
  %3 = alloca i32, align 4
  store i32 %0, ptr %3, align 4
  %4 = load i32, ptr %3, align 4
  switch i32 %4, label %10 [
    i32 0, label %5
    i32 1, label %6
    i32 2, label %7
    i32 3, label %8
    i32 4, label %9
  ]

5:                                                ; preds = %1
  store ptr @.str, ptr %2, align 8
  br label %21

6:                                                ; preds = %1
  store ptr @.str.1, ptr %2, align 8
  br label %21

7:                                                ; preds = %1
  store ptr @.str.2, ptr %2, align 8
  br label %21

8:                                                ; preds = %1
  store ptr @.str.3, ptr %2, align 8
  br label %21

9:                                                ; preds = %1
  store ptr @.str.4, ptr %2, align 8
  br label %21

10:                                               ; preds = %1
  br label %11

11:                                               ; preds = %10
  br i1 true, label %12, label %14

12:                                               ; preds = %11
  %13 = call zeroext i1 @errstart_cold(i32 noundef 21, ptr noundef null) #9
  br i1 %13, label %16, label %19

14:                                               ; preds = %11
  %15 = call zeroext i1 @errstart(i32 noundef 21, ptr noundef null)
  br i1 %15, label %16, label %19

16:                                               ; preds = %14, %12
  %17 = load i32, ptr %3, align 4
  %18 = call i32 (ptr, ...) @errmsg_internal(ptr noundef @.str.5, i32 noundef %17)
  call void @errfinish(ptr noundef @.str.6, i32 noundef 263, ptr noundef @__func__.pgstat_get_io_context_name)
  br label %19

19:                                               ; preds = %16, %14, %12
  unreachable

20:                                               ; No predecessors!
  unreachable

21:                                               ; preds = %9, %8, %7, %6, %5
  %22 = load ptr, ptr %2, align 8
  ret ptr %22
}