; Function Attrs: nounwind uwtable
define dso_local noundef nonnull ptr @pgstat_get_io_context_name(i32 noundef %0) local_unnamed_addr #3 {
  %2 = icmp ult i32 %0, 5
  br i1 %2, label %switch.lookup, label %3

3:                                                ; preds = %1
  %4 = tail call zeroext i1 @errstart_cold(i32 noundef 21, ptr noundef null) #12
  tail call void @llvm.assume(i1 %4)
  %5 = tail call i32 (ptr, ...) @errmsg_internal(ptr noundef nonnull @.str.5, i32 noundef %0) #11
  tail call void @errfinish(ptr noundef nonnull @.str.6, i32 noundef 263, ptr noundef nonnull @__func__.pgstat_get_io_context_name) #11
  unreachable

switch.lookup:                                    ; preds = %1
  %6 = zext nneg i32 %0 to i64
  %switch.gep = getelementptr inbounds nuw [5 x ptr], ptr @switch.table.pgstat_get_io_context_name, i64 0, i64 %6
  %switch.load = load ptr, ptr %switch.gep, align 8
  ret ptr %switch.load
}